target datalayout = "e-m:e-p270:32:32-p271:32:32-p272:64:64-i64:64-i128:128-f80:128-n8:16:32:64-S128"
target triple = "x86_64-pc-linux-gnu"

%struct.nghttp2_frame_hd = type { i64, i32, i8, i8, i8 }
%struct.nghttp2_bufs = type { ptr, ptr, ptr, i64, i64, i64, i64, i64 }
%struct.nghttp2_buf_chain = type { ptr, %struct.nghttp2_buf }
%struct.nghttp2_buf = type { ptr, ptr, ptr, ptr, ptr }

@.str.1 = private unnamed_addr constant [113 x i8] c"generated/home/dtcxzyw/WorkSpace/Projects/compilers/llvm-opt-benchmark/bench/nghttp2/nghttp2/lib/nghttp2_frame.c\00", align 1
@.str.14 = private unnamed_addr constant [37 x i8] c"nghttp2_buf_avail(buf) >= padlen - 1\00", align 1
@__PRETTY_FUNCTION__.nghttp2_frame_add_pad = private unnamed_addr constant [76 x i8] c"void nghttp2_frame_add_pad(nghttp2_bufs *, nghttp2_frame_hd *, size_t, int)\00", align 1

; Function Attrs: nounwind uwtable
define internal void @frame_set_pad(ptr noundef %0, i64 noundef %1, i32 noundef %2) #0 {
  %4 = alloca ptr, align 8
  %5 = alloca i64, align 8
  %6 = alloca i32, align 4
  %7 = alloca i64, align 8
  %8 = alloca i64, align 8
  %9 = alloca i32, align 4
  store ptr %0, ptr %4, align 8, !tbaa !8
  store i64 %1, ptr %5, align 8, !tbaa !18
  store i32 %2, ptr %6, align 4, !tbaa !19
  call void @llvm.lifetime.start.p0(i64 8, ptr %7) #7
  call void @llvm.lifetime.start.p0(i64 8, ptr %8) #7
  br label %10

10:                                               ; preds = %3
  br label %11

11:                                               ; preds = %10
  br label %12

12:                                               ; preds = %11
  %13 = load ptr, ptr %4, align 8, !tbaa !8
  %14 = getelementptr inbounds nuw %struct.nghttp2_buf, ptr %13, i32 0, i32 2
  %15 = load ptr, ptr %14, align 8, !tbaa !74
  %16 = getelementptr inbounds i8, ptr %15, i64 -1
  %17 = load ptr, ptr %4, align 8, !tbaa !8
  %18 = getelementptr inbounds nuw %struct.nghttp2_buf, ptr %17, i32 0, i32 2
  %19 = load ptr, ptr %18, align 8, !tbaa !74
  call void @llvm.memmove.p0.p0.i64(ptr align 1 %16, ptr align 1 %19, i64 9, i1 false)
  %20 = load ptr, ptr %4, align 8, !tbaa !8
  %21 = getelementptr inbounds nuw %struct.nghttp2_buf, ptr %20, i32 0, i32 2
  %22 = load ptr, ptr %21, align 8, !tbaa !74
  %23 = getelementptr inbounds i8, ptr %22, i32 -1
  store ptr %23, ptr %21, align 8, !tbaa !74
  %24 = load ptr, ptr %4, align 8, !tbaa !8
  %25 = getelementptr inbounds nuw %struct.nghttp2_buf, ptr %24, i32 0, i32 2
  %26 = load ptr, ptr %25, align 8, !tbaa !74
  %27 = getelementptr inbounds i8, ptr %26, i64 4
  %28 = load i8, ptr %27, align 1, !tbaa !14
  %29 = zext i8 %28 to i32
  %30 = or i32 %29, 8
  %31 = trunc i32 %30 to i8
  store i8 %31, ptr %27, align 1, !tbaa !14
  %32 = load ptr, ptr %4, align 8, !tbaa !8
  %33 = getelementptr inbounds nuw %struct.nghttp2_buf, ptr %32, i32 0, i32 2
  %34 = load ptr, ptr %33, align 8, !tbaa !74
  %35 = call i32 @nghttp2_get_uint32(ptr noundef %34)
  %36 = lshr i32 %35, 8
  %37 = zext i32 %36 to i64
  %38 = load i64, ptr %5, align 8, !tbaa !18
  %39 = add i64 %37, %38
  store i64 %39, ptr %8, align 8, !tbaa !18
  %40 = load ptr, ptr %4, align 8, !tbaa !8
  %41 = getelementptr inbounds nuw %struct.nghttp2_buf, ptr %40, i32 0, i32 2
  %42 = load ptr, ptr %41, align 8, !tbaa !74
  %43 = load i64, ptr %8, align 8, !tbaa !18
  %44 = shl i64 %43, 8
  %45 = load ptr, ptr %4, align 8, !tbaa !8
  %46 = getelementptr inbounds nuw %struct.nghttp2_buf, ptr %45, i32 0, i32 2
  %47 = load ptr, ptr %46, align 8, !tbaa !74
  %48 = getelementptr inbounds i8, ptr %47, i64 3
  %49 = load i8, ptr %48, align 1, !tbaa !14
  %50 = zext i8 %49 to i64
  %51 = add i64 %44, %50
  %52 = trunc i64 %51 to i32
  call void @nghttp2_put_uint32be(ptr noundef %42, i32 noundef %52)
  %53 = load i32, ptr %6, align 4, !tbaa !19
  %54 = icmp ne i32 %53, 0
  br i1 %54, label %55, label %56

55:                                               ; preds = %12
  store i32 1, ptr %9, align 4
  br label %74

56:                                               ; preds = %12
  %57 = load i64, ptr %5, align 8, !tbaa !18
  %58 = sub i64 %57, 1
  store i64 %58, ptr %7, align 8, !tbaa !18
  %59 = load i64, ptr %7, align 8, !tbaa !18
  %60 = trunc i64 %59 to i8
  %61 = load ptr, ptr %4, align 8, !tbaa !8
  %62 = getelementptr inbounds nuw %struct.nghttp2_buf, ptr %61, i32 0, i32 2
  %63 = load ptr, ptr %62, align 8, !tbaa !74
  %64 = getelementptr inbounds i8, ptr %63, i64 9
  store i8 %60, ptr %64, align 1, !tbaa !14
  %65 = load ptr, ptr %4, align 8, !tbaa !8
  %66 = getelementptr inbounds nuw %struct.nghttp2_buf, ptr %65, i32 0, i32 3
  %67 = load ptr, ptr %66, align 8, !tbaa !76
  %68 = load i64, ptr %7, align 8, !tbaa !18
  call void @llvm.memset.p0.i64(ptr align 1 %67, i8 0, i64 %68, i1 false)
  %69 = load i64, ptr %7, align 8, !tbaa !18
  %70 = load ptr, ptr %4, align 8, !tbaa !8
  %71 = getelementptr inbounds nuw %struct.nghttp2_buf, ptr %70, i32 0, i32 3
  %72 = load ptr, ptr %71, align 8, !tbaa !76
  %73 = getelementptr inbounds nuw i8, ptr %72, i64 %69
  store ptr %73, ptr %71, align 8, !tbaa !76
  store i32 0, ptr %9, align 4
  br label %74

74:                                               ; preds = %56, %55
  call void @llvm.lifetime.end.p0(i64 8, ptr %8) #7
  call void @llvm.lifetime.end.p0(i64 8, ptr %7) #7
  %75 = load i32, ptr %9, align 4
  switch i32 %75, label %77 [
    i32 0, label %76
    i32 1, label %76
  ]

76:                                               ; preds = %74, %74
  ret void

77:                                               ; preds = %74
  unreachable
}

; Function Attrs: nounwind uwtable
define hidden void @nghttp2_frame_add_pad(ptr noundef %0, ptr noundef %1, i64 noundef %2, i32 noundef %3) #0 {
  %5 = alloca ptr, align 8
  %6 = alloca ptr, align 8
  %7 = alloca i64, align 8
  %8 = alloca i32, align 4
  %9 = alloca ptr, align 8
  %10 = alloca i32, align 4
  store ptr %0, ptr %5, align 8, !tbaa !8
  store ptr %1, ptr %6, align 8, !tbaa !8
  store i64 %2, ptr %7, align 8, !tbaa !18
  store i32 %3, ptr %8, align 4, !tbaa !19
  call void @llvm.lifetime.start.p0(i64 8, ptr %9) #7
  %11 = load i64, ptr %7, align 8, !tbaa !18
  %12 = icmp eq i64 %11, 0
  br i1 %12, label %13, label %17

13:                                               ; preds = %4
  br label %14

14:                                               ; preds = %13
  br label %15

15:                                               ; preds = %14
  br label %16

16:                                               ; preds = %15
  store i32 1, ptr %10, align 4
  br label %54

17:                                               ; preds = %4
  %18 = load ptr, ptr %5, align 8, !tbaa !8
  %19 = getelementptr inbounds nuw %struct.nghttp2_bufs, ptr %18, i32 0, i32 0
  %20 = load ptr, ptr %19, align 8, !tbaa !70
  %21 = getelementptr inbounds nuw %struct.nghttp2_buf_chain, ptr %20, i32 0, i32 1
  store ptr %21, ptr %9, align 8, !tbaa !8
  %22 = load ptr, ptr %9, align 8, !tbaa !8
  %23 = getelementptr inbounds nuw %struct.nghttp2_buf, ptr %22, i32 0, i32 1
  %24 = load ptr, ptr %23, align 8, !tbaa !86
  %25 = load ptr, ptr %9, align 8, !tbaa !8
  %26 = getelementptr inbounds nuw %struct.nghttp2_buf, ptr %25, i32 0, i32 3
  %27 = load ptr, ptr %26, align 8, !tbaa !76
  %28 = ptrtoint ptr %24 to i64
  %29 = ptrtoint ptr %27 to i64
  %30 = sub i64 %28, %29
  %31 = load i64, ptr %7, align 8, !tbaa !18
  %32 = sub i64 %31, 1
  %33 = icmp uge i64 %30, %32
  br i1 %33, label %34, label %35

34:                                               ; preds = %17
  br label %36

35:                                               ; preds = %17
  call void @__assert_fail(ptr noundef @.str.14, ptr noundef @.str.1, i32 noundef 1206, ptr noundef @__PRETTY_FUNCTION__.nghttp2_frame_add_pad) #8
  unreachable

36:                                               ; preds = %34
  %37 = load ptr, ptr %9, align 8, !tbaa !8
  %38 = load i64, ptr %7, align 8, !tbaa !18
  %39 = load i32, ptr %8, align 4, !tbaa !19
  call void @frame_set_pad(ptr noundef %37, i64 noundef %38, i32 noundef %39)
  %40 = load i64, ptr %7, align 8, !tbaa !18
  %41 = load ptr, ptr %6, align 8, !tbaa !8
  %42 = getelementptr inbounds nuw %struct.nghttp2_frame_hd, ptr %41, i32 0, i32 0
  %43 = load i64, ptr %42, align 8, !tbaa !9
  %44 = add i64 %43, %40
  store i64 %44, ptr %42, align 8, !tbaa !9
  %45 = load ptr, ptr %6, align 8, !tbaa !8
  %46 = getelementptr inbounds nuw %struct.nghttp2_frame_hd, ptr %45, i32 0, i32 3
  %47 = load i8, ptr %46, align 1, !tbaa !15
  %48 = zext i8 %47 to i32
  %49 = or i32 %48, 8
  %50 = trunc i32 %49 to i8
  store i8 %50, ptr %46, align 1, !tbaa !15
  br label %51

51:                                               ; preds = %36
  br label %52

52:                                               ; preds = %51
  br label %53

53:                                               ; preds = %52
  store i32 0, ptr %10, align 4
  br label %54

54:                                               ; preds = %53, %16
  call void @llvm.lifetime.end.p0(i64 8, ptr %9) #7
  %55 = load i32, ptr %10, align 4
  switch i32 %55, label %57 [
    i32 0, label %56
    i32 1, label %56
  ]

56:                                               ; preds = %54, %54
  ret void

57:                                               ; preds = %54
  unreachable
}