; Function Attrs: nounwind uwtable
define hidden void @nghttp2_frame_add_pad(ptr noundef readonly captures(none) %0, ptr noundef captures(none) %1, i64 noundef %2, i32 noundef %3) local_unnamed_addr #0 {
  %5 = icmp eq i64 %2, 0
  br i1 %5, label %50, label %6

6:                                                ; preds = %4
  %7 = load ptr, ptr %0, align 8, !tbaa !65
  %8 = getelementptr inbounds nuw i8, ptr %7, i64 16
  %9 = load ptr, ptr %8, align 8, !tbaa !79
  %10 = getelementptr inbounds nuw i8, ptr %7, i64 32
  %11 = load ptr, ptr %10, align 8, !tbaa !71
  %12 = ptrtoint ptr %9 to i64
  %13 = ptrtoint ptr %11 to i64
  %14 = sub i64 %12, %13
  %15 = add i64 %2, -1
  %.not = icmp ult i64 %14, %15
  br i1 %.not, label %16, label %17

16:                                               ; preds = %6
  tail call void @__assert_fail(ptr noundef nonnull @.str.14, ptr noundef nonnull @.str.1, i32 noundef 1206, ptr noundef nonnull @__PRETTY_FUNCTION__.nghttp2_frame_add_pad) #19
  unreachable

17:                                               ; preds = %6
  %18 = getelementptr inbounds nuw i8, ptr %7, i64 24
  %19 = load ptr, ptr %18, align 8, !tbaa !69
  %20 = getelementptr inbounds i8, ptr %19, i64 -1
  tail call void @llvm.memmove.p0.p0.i64(ptr noundef nonnull align 1 dereferenceable(9) %20, ptr noundef nonnull align 1 dereferenceable(9) %19, i64 9, i1 false)
  %21 = load ptr, ptr %18, align 8, !tbaa !69
  %22 = getelementptr inbounds i8, ptr %21, i64 -1
  store ptr %22, ptr %18, align 8, !tbaa !69
  %23 = getelementptr inbounds nuw i8, ptr %21, i64 3
  %24 = load i8, ptr %23, align 1, !tbaa !10
  %25 = or i8 %24, 8
  store i8 %25, ptr %23, align 1, !tbaa !10
  %26 = load ptr, ptr %18, align 8, !tbaa !69
  %27 = tail call i32 @nghttp2_get_uint32(ptr noundef %26) #18
  %28 = lshr i32 %27, 8
  %29 = zext nneg i32 %28 to i64
  %30 = add i64 %2, %29
  %31 = load ptr, ptr %18, align 8, !tbaa !69
  %32 = shl i64 %30, 8
  %33 = getelementptr inbounds nuw i8, ptr %31, i64 3
  %34 = load i8, ptr %33, align 1, !tbaa !10
  %35 = zext i8 %34 to i64
  %36 = or disjoint i64 %32, %35
  %37 = trunc i64 %36 to i32
  tail call void @nghttp2_put_uint32be(ptr noundef %31, i32 noundef %37) #18
  %.not.i = icmp eq i32 %3, 0
  br i1 %.not.i, label %38, label %frame_set_pad.exit

38:                                               ; preds = %17
  %39 = trunc i64 %15 to i8
  %40 = load ptr, ptr %18, align 8, !tbaa !69
  %41 = getelementptr inbounds nuw i8, ptr %40, i64 9
  store i8 %39, ptr %41, align 1, !tbaa !10
  %42 = load ptr, ptr %10, align 8, !tbaa !71
  tail call void @llvm.memset.p0.i64(ptr align 1 %42, i8 0, i64 %15, i1 false)
  %43 = load ptr, ptr %10, align 8, !tbaa !71
  %44 = getelementptr inbounds nuw i8, ptr %43, i64 %15
  store ptr %44, ptr %10, align 8, !tbaa !71
  br label %frame_set_pad.exit

frame_set_pad.exit:                               ; preds = %17, %38
  %45 = load i64, ptr %1, align 8, !tbaa !3
  %46 = add i64 %45, %2
  store i64 %46, ptr %1, align 8, !tbaa !3
  %47 = getelementptr inbounds nuw i8, ptr %1, i64 13
  %48 = load i8, ptr %47, align 1, !tbaa !11
  %49 = or i8 %48, 8
  store i8 %49, ptr %47, align 1, !tbaa !11
  br label %50

50:                                               ; preds = %4, %frame_set_pad.exit
  ret void
}